target datalayout = "e-m:e-p270:32:32-p271:32:32-p272:64:64-i64:64-i128:128-f80:128-n8:16:32:64-S128"
target triple = "x86_64-pc-linux-gnu"

%struct.BIO_CORE_GLOBALS = type { ptr, ptr, ptr, ptr, ptr, ptr, ptr }

; Function Attrs: nounwind uwtable
define ptr @BIO_s_core() #0 {
  ret ptr @corebiometh
}

; Function Attrs: inlinehint nounwind uwtable
define internal ptr @get_globals(ptr noundef %0) #3 {
  %2 = alloca ptr, align 8
  store ptr %0, ptr %2, align 8, !tbaa !7
  %3 = load ptr, ptr %2, align 8, !tbaa !7
  %4 = call ptr @ossl_lib_ctx_get_data(ptr noundef %3, i32 noundef 17)
  ret ptr %4
}

; Function Attrs: nounwind uwtable
define ptr @BIO_new_from_core_bio(ptr noundef %0, ptr noundef %1) #0 {
  %3 = alloca ptr, align 8
  %4 = alloca ptr, align 8
  %5 = alloca ptr, align 8
  %6 = alloca ptr, align 8
  %7 = alloca ptr, align 8
  %8 = alloca i32, align 4
  store ptr %0, ptr %4, align 8, !tbaa !7
  store ptr %1, ptr %5, align 8, !tbaa !9
  call void @llvm.lifetime.start.p0(i64 8, ptr %6) #4
  call void @llvm.lifetime.start.p0(i64 8, ptr %7) #4
  %9 = load ptr, ptr %4, align 8, !tbaa !7
  %10 = call ptr @get_globals(ptr noundef %9)
  store ptr %10, ptr %7, align 8, !tbaa !3
  %11 = load ptr, ptr %7, align 8, !tbaa !3
  %12 = icmp eq ptr %11, null
  br i1 %12, label %23, label %13

13:                                               ; preds = %2
  %14 = load ptr, ptr %7, align 8, !tbaa !3
  %15 = getelementptr inbounds nuw %struct.BIO_CORE_GLOBALS, ptr %14, i32 0, i32 1
  %16 = load ptr, ptr %15, align 8, !tbaa !11
  %17 = icmp eq ptr %16, null
  br i1 %17, label %18, label %24

18:                                               ; preds = %13
  %19 = load ptr, ptr %7, align 8, !tbaa !3
  %20 = getelementptr inbounds nuw %struct.BIO_CORE_GLOBALS, ptr %19, i32 0, i32 0
  %21 = load ptr, ptr %20, align 8, !tbaa !13
  %22 = icmp eq ptr %21, null
  br i1 %22, label %23, label %24

23:                                               ; preds = %18, %2
  store ptr null, ptr %3, align 8
  store i32 1, ptr %8, align 4
  br label %44

24:                                               ; preds = %18, %13
  %25 = load ptr, ptr %4, align 8, !tbaa !7
  %26 = call ptr @BIO_s_core()
  %27 = call ptr @BIO_new_ex(ptr noundef %25, ptr noundef %26)
  store ptr %27, ptr %6, align 8, !tbaa !14
  %28 = icmp eq ptr %27, null
  br i1 %28, label %29, label %30

29:                                               ; preds = %24
  store ptr null, ptr %3, align 8
  store i32 1, ptr %8, align 4
  br label %44

30:                                               ; preds = %24
  %31 = load ptr, ptr %7, align 8, !tbaa !3
  %32 = getelementptr inbounds nuw %struct.BIO_CORE_GLOBALS, ptr %31, i32 0, i32 5
  %33 = load ptr, ptr %32, align 8, !tbaa !16
  %34 = load ptr, ptr %5, align 8, !tbaa !9
  %35 = call i32 %33(ptr noundef %34)
  %36 = icmp ne i32 %35, 0
  br i1 %36, label %40, label %37

37:                                               ; preds = %30
  %38 = load ptr, ptr %6, align 8, !tbaa !14
  %39 = call i32 @BIO_free(ptr noundef %38)
  store ptr null, ptr %3, align 8
  store i32 1, ptr %8, align 4
  br label %44

40:                                               ; preds = %30
  %41 = load ptr, ptr %6, align 8, !tbaa !14
  %42 = load ptr, ptr %5, align 8, !tbaa !9
  call void @BIO_set_data(ptr noundef %41, ptr noundef %42)
  %43 = load ptr, ptr %6, align 8, !tbaa !14
  store ptr %43, ptr %3, align 8
  store i32 1, ptr %8, align 4
  br label %44

44:                                               ; preds = %40, %37, %29, %23
  call void @llvm.lifetime.end.p0(i64 8, ptr %7) #4
  call void @llvm.lifetime.end.p0(i64 8, ptr %6) #4
  %45 = load ptr, ptr %3, align 8
  ret ptr %45
}