; Function Attrs: nounwind uwtable
define ptr @BIO_new_from_core_bio(ptr noundef %0, ptr noundef %1) local_unnamed_addr #0 {
  %3 = tail call ptr @ossl_lib_ctx_get_data(ptr noundef %0, i32 noundef 17) #3
  %4 = icmp eq ptr %3, null
  br i1 %4, label %22, label %5

5:                                                ; preds = %2
  %6 = getelementptr inbounds nuw i8, ptr %3, i64 8
  %7 = load ptr, ptr %6, align 8, !tbaa !3
  %8 = icmp eq ptr %7, null
  br i1 %8, label %9, label %12

9:                                                ; preds = %5
  %10 = load ptr, ptr %3, align 8, !tbaa !8
  %11 = icmp eq ptr %10, null
  br i1 %11, label %22, label %12

12:                                               ; preds = %9, %5
  %13 = tail call ptr @BIO_new_ex(ptr noundef %0, ptr noundef nonnull @corebiometh) #3
  %14 = icmp eq ptr %13, null
  br i1 %14, label %22, label %15

15:                                               ; preds = %12
  %16 = getelementptr inbounds nuw i8, ptr %3, i64 40
  %17 = load ptr, ptr %16, align 8, !tbaa !9
  %18 = tail call i32 %17(ptr noundef %1) #3
  %.not = icmp eq i32 %18, 0
  br i1 %.not, label %19, label %21

19:                                               ; preds = %15
  %20 = tail call i32 @BIO_free(ptr noundef nonnull %13) #3
  br label %22

21:                                               ; preds = %15
  tail call void @BIO_set_data(ptr noundef nonnull %13, ptr noundef %1) #3
  br label %22

22:                                               ; preds = %12, %2, %9, %21, %19
  %.0 = phi ptr [ %13, %21 ], [ null, %19 ], [ null, %9 ], [ null, %2 ], [ null, %12 ]
  ret ptr %.0
}